target datalayout = "e-m:e-p270:32:32-p271:32:32-p272:64:64-i64:64-i128:128-f80:128-n8:16:32:64-S128"
target triple = "x86_64-pc-linux-gnu"

%"struct.p2t::Point" = type { double, double, %"class.std::vector" }
%"class.std::vector" = type { %"struct.std::_Vector_base" }
%"struct.std::_Vector_base" = type { %"struct.std::_Vector_base<p2t::Edge *, std::allocator<p2t::Edge *>>::_Vector_impl" }
%"struct.std::_Vector_base<p2t::Edge *, std::allocator<p2t::Edge *>>::_Vector_impl" = type { %"struct.std::_Vector_base<p2t::Edge *, std::allocator<p2t::Edge *>>::_Vector_impl_data" }
%"struct.std::_Vector_base<p2t::Edge *, std::allocator<p2t::Edge *>>::_Vector_impl_data" = type { ptr, ptr, ptr }

; Function Attrs: mustprogress nounwind uwtable
define hidden noundef zeroext i1 @_ZNK3p2t5Sweep8IncircleERKNS_5PointES3_S3_S3_(ptr noundef nonnull align 8 dereferenceable(24) %0, ptr noundef nonnull align 8 dereferenceable(40) %1, ptr noundef nonnull align 8 dereferenceable(40) %2, ptr noundef nonnull align 8 dereferenceable(40) %3, ptr noundef nonnull align 8 dereferenceable(40) %4) #2 align 2 {
  %6 = alloca i1, align 1
  %7 = alloca ptr, align 8
  %8 = alloca ptr, align 8
  %9 = alloca ptr, align 8
  %10 = alloca ptr, align 8
  %11 = alloca ptr, align 8
  %12 = alloca double, align 8
  %13 = alloca double, align 8
  %14 = alloca double, align 8
  %15 = alloca double, align 8
  %16 = alloca double, align 8
  %17 = alloca double, align 8
  %18 = alloca double, align 8
  %19 = alloca i32, align 4
  %20 = alloca double, align 8
  %21 = alloca double, align 8
  %22 = alloca double, align 8
  %23 = alloca double, align 8
  %24 = alloca double, align 8
  %25 = alloca double, align 8
  %26 = alloca double, align 8
  %27 = alloca double, align 8
  %28 = alloca double, align 8
  %29 = alloca double, align 8
  %30 = alloca double, align 8
  store ptr %0, ptr %7, align 8
  store ptr %1, ptr %8, align 8
  store ptr %2, ptr %9, align 8
  store ptr %3, ptr %10, align 8
  store ptr %4, ptr %11, align 8
  call void @llvm.lifetime.start.p0(i64 8, ptr %12) #14
  %31 = load ptr, ptr %8, align 8
  %32 = getelementptr inbounds nuw %"struct.p2t::Point", ptr %31, i32 0, i32 0
  %33 = load double, ptr %32, align 8
  %34 = load ptr, ptr %11, align 8
  %35 = getelementptr inbounds nuw %"struct.p2t::Point", ptr %34, i32 0, i32 0
  %36 = load double, ptr %35, align 8
  %37 = fsub double %33, %36
  store double %37, ptr %12, align 8
  call void @llvm.lifetime.start.p0(i64 8, ptr %13) #14
  %38 = load ptr, ptr %8, align 8
  %39 = getelementptr inbounds nuw %"struct.p2t::Point", ptr %38, i32 0, i32 1
  %40 = load double, ptr %39, align 8
  %41 = load ptr, ptr %11, align 8
  %42 = getelementptr inbounds nuw %"struct.p2t::Point", ptr %41, i32 0, i32 1
  %43 = load double, ptr %42, align 8
  %44 = fsub double %40, %43
  store double %44, ptr %13, align 8
  call void @llvm.lifetime.start.p0(i64 8, ptr %14) #14
  %45 = load ptr, ptr %9, align 8
  %46 = getelementptr inbounds nuw %"struct.p2t::Point", ptr %45, i32 0, i32 0
  %47 = load double, ptr %46, align 8
  %48 = load ptr, ptr %11, align 8
  %49 = getelementptr inbounds nuw %"struct.p2t::Point", ptr %48, i32 0, i32 0
  %50 = load double, ptr %49, align 8
  %51 = fsub double %47, %50
  store double %51, ptr %14, align 8
  call void @llvm.lifetime.start.p0(i64 8, ptr %15) #14
  %52 = load ptr, ptr %9, align 8
  %53 = getelementptr inbounds nuw %"struct.p2t::Point", ptr %52, i32 0, i32 1
  %54 = load double, ptr %53, align 8
  %55 = load ptr, ptr %11, align 8
  %56 = getelementptr inbounds nuw %"struct.p2t::Point", ptr %55, i32 0, i32 1
  %57 = load double, ptr %56, align 8
  %58 = fsub double %54, %57
  store double %58, ptr %15, align 8
  call void @llvm.lifetime.start.p0(i64 8, ptr %16) #14
  %59 = load double, ptr %12, align 8
  %60 = load double, ptr %15, align 8
  %61 = fmul double %59, %60
  store double %61, ptr %16, align 8
  call void @llvm.lifetime.start.p0(i64 8, ptr %17) #14
  %62 = load double, ptr %14, align 8
  %63 = load double, ptr %13, align 8
  %64 = fmul double %62, %63
  store double %64, ptr %17, align 8
  call void @llvm.lifetime.start.p0(i64 8, ptr %18) #14
  %65 = load double, ptr %16, align 8
  %66 = load double, ptr %17, align 8
  %67 = fsub double %65, %66
  store double %67, ptr %18, align 8
  %68 = load double, ptr %18, align 8
  %69 = fcmp ole double %68, 0.000000e+00
  br i1 %69, label %70, label %71

70:                                               ; preds = %5
  store i1 false, ptr %6, align 1
  store i32 1, ptr %19, align 4
  br label %137

71:                                               ; preds = %5
  call void @llvm.lifetime.start.p0(i64 8, ptr %20) #14
  %72 = load ptr, ptr %10, align 8
  %73 = getelementptr inbounds nuw %"struct.p2t::Point", ptr %72, i32 0, i32 0
  %74 = load double, ptr %73, align 8
  %75 = load ptr, ptr %11, align 8
  %76 = getelementptr inbounds nuw %"struct.p2t::Point", ptr %75, i32 0, i32 0
  %77 = load double, ptr %76, align 8
  %78 = fsub double %74, %77
  store double %78, ptr %20, align 8
  call void @llvm.lifetime.start.p0(i64 8, ptr %21) #14
  %79 = load ptr, ptr %10, align 8
  %80 = getelementptr inbounds nuw %"struct.p2t::Point", ptr %79, i32 0, i32 1
  %81 = load double, ptr %80, align 8
  %82 = load ptr, ptr %11, align 8
  %83 = getelementptr inbounds nuw %"struct.p2t::Point", ptr %82, i32 0, i32 1
  %84 = load double, ptr %83, align 8
  %85 = fsub double %81, %84
  store double %85, ptr %21, align 8
  call void @llvm.lifetime.start.p0(i64 8, ptr %22) #14
  %86 = load double, ptr %20, align 8
  %87 = load double, ptr %13, align 8
  %88 = fmul double %86, %87
  store double %88, ptr %22, align 8
  call void @llvm.lifetime.start.p0(i64 8, ptr %23) #14
  %89 = load double, ptr %12, align 8
  %90 = load double, ptr %21, align 8
  %91 = fmul double %89, %90
  store double %91, ptr %23, align 8
  call void @llvm.lifetime.start.p0(i64 8, ptr %24) #14
  %92 = load double, ptr %22, align 8
  %93 = load double, ptr %23, align 8
  %94 = fsub double %92, %93
  store double %94, ptr %24, align 8
  %95 = load double, ptr %24, align 8
  %96 = fcmp ole double %95, 0.000000e+00
  br i1 %96, label %97, label %98

97:                                               ; preds = %71
  store i1 false, ptr %6, align 1
  store i32 1, ptr %19, align 4
  br label %136

98:                                               ; preds = %71
  call void @llvm.lifetime.start.p0(i64 8, ptr %25) #14
  %99 = load double, ptr %14, align 8
  %100 = load double, ptr %21, align 8
  %101 = fmul double %99, %100
  store double %101, ptr %25, align 8
  call void @llvm.lifetime.start.p0(i64 8, ptr %26) #14
  %102 = load double, ptr %20, align 8
  %103 = load double, ptr %15, align 8
  %104 = fmul double %102, %103
  store double %104, ptr %26, align 8
  call void @llvm.lifetime.start.p0(i64 8, ptr %27) #14
  %105 = load double, ptr %12, align 8
  %106 = load double, ptr %12, align 8
  %107 = load double, ptr %13, align 8
  %108 = load double, ptr %13, align 8
  %109 = fmul double %107, %108
  %110 = call double @llvm.fmuladd.f64(double %105, double %106, double %109)
  store double %110, ptr %27, align 8
  call void @llvm.lifetime.start.p0(i64 8, ptr %28) #14
  %111 = load double, ptr %14, align 8
  %112 = load double, ptr %14, align 8
  %113 = load double, ptr %15, align 8
  %114 = load double, ptr %15, align 8
  %115 = fmul double %113, %114
  %116 = call double @llvm.fmuladd.f64(double %111, double %112, double %115)
  store double %116, ptr %28, align 8
  call void @llvm.lifetime.start.p0(i64 8, ptr %29) #14
  %117 = load double, ptr %20, align 8
  %118 = load double, ptr %20, align 8
  %119 = load double, ptr %21, align 8
  %120 = load double, ptr %21, align 8
  %121 = fmul double %119, %120
  %122 = call double @llvm.fmuladd.f64(double %117, double %118, double %121)
  store double %122, ptr %29, align 8
  call void @llvm.lifetime.start.p0(i64 8, ptr %30) #14
  %123 = load double, ptr %27, align 8
  %124 = load double, ptr %25, align 8
  %125 = load double, ptr %26, align 8
  %126 = fsub double %124, %125
  %127 = load double, ptr %28, align 8
  %128 = load double, ptr %24, align 8
  %129 = fmul double %127, %128
  %130 = call double @llvm.fmuladd.f64(double %123, double %126, double %129)
  %131 = load double, ptr %29, align 8
  %132 = load double, ptr %18, align 8
  %133 = call double @llvm.fmuladd.f64(double %131, double %132, double %130)
  store double %133, ptr %30, align 8
  %134 = load double, ptr %30, align 8
  %135 = fcmp ogt double %134, 0.000000e+00
  store i1 %135, ptr %6, align 1
  store i32 1, ptr %19, align 4
  call void @llvm.lifetime.end.p0(i64 8, ptr %30) #14
  call void @llvm.lifetime.end.p0(i64 8, ptr %29) #14
  call void @llvm.lifetime.end.p0(i64 8, ptr %28) #14
  call void @llvm.lifetime.end.p0(i64 8, ptr %27) #14
  call void @llvm.lifetime.end.p0(i64 8, ptr %26) #14
  call void @llvm.lifetime.end.p0(i64 8, ptr %25) #14
  br label %136

136:                                              ; preds = %98, %97
  call void @llvm.lifetime.end.p0(i64 8, ptr %24) #14
  call void @llvm.lifetime.end.p0(i64 8, ptr %23) #14
  call void @llvm.lifetime.end.p0(i64 8, ptr %22) #14
  call void @llvm.lifetime.end.p0(i64 8, ptr %21) #14
  call void @llvm.lifetime.end.p0(i64 8, ptr %20) #14
  br label %137

137:                                              ; preds = %136, %70
  call void @llvm.lifetime.end.p0(i64 8, ptr %18) #14
  call void @llvm.lifetime.end.p0(i64 8, ptr %17) #14
  call void @llvm.lifetime.end.p0(i64 8, ptr %16) #14
  call void @llvm.lifetime.end.p0(i64 8, ptr %15) #14
  call void @llvm.lifetime.end.p0(i64 8, ptr %14) #14
  call void @llvm.lifetime.end.p0(i64 8, ptr %13) #14
  call void @llvm.lifetime.end.p0(i64 8, ptr %12) #14
  %138 = load i1, ptr %6, align 1
  ret i1 %138
}