; Function Attrs: mustprogress nofree norecurse nosync nounwind willreturn memory(argmem: read) uwtable
define hidden noundef zeroext i1 @_ZNK3p2t5Sweep8IncircleERKNS_5PointES3_S3_S3_(ptr noundef nonnull readnone align 8 captures(none) dereferenceable(24) %0, ptr noundef nonnull readonly align 8 captures(none) dereferenceable(40) %1, ptr noundef nonnull readonly align 8 captures(none) dereferenceable(40) %2, ptr noundef nonnull readonly align 8 captures(none) dereferenceable(40) %3, ptr noundef nonnull readonly align 8 captures(none) dereferenceable(40) %4) local_unnamed_addr #0 align 2 {
  %6 = load double, ptr %1, align 8
  %7 = load double, ptr %4, align 8
  %8 = fsub double %6, %7
  %9 = getelementptr inbounds nuw i8, ptr %1, i64 8
  %10 = load double, ptr %9, align 8
  %11 = getelementptr inbounds nuw i8, ptr %4, i64 8
  %12 = load double, ptr %11, align 8
  %13 = fsub double %10, %12
  %14 = load double, ptr %2, align 8
  %15 = fsub double %14, %7
  %16 = getelementptr inbounds nuw i8, ptr %2, i64 8
  %17 = load double, ptr %16, align 8
  %18 = fsub double %17, %12
  %19 = fmul double %8, %18
  %20 = fmul double %13, %15
  %21 = fsub double %19, %20
  %22 = fcmp ugt double %21, 0.000000e+00
  br i1 %22, label %23, label %47

23:                                               ; preds = %5
  %24 = load double, ptr %3, align 8
  %25 = fsub double %24, %7
  %26 = getelementptr inbounds nuw i8, ptr %3, i64 8
  %27 = load double, ptr %26, align 8
  %28 = fsub double %27, %12
  %29 = fmul double %13, %25
  %30 = fmul double %8, %28
  %31 = fsub double %29, %30
  %32 = fcmp ugt double %31, 0.000000e+00
  br i1 %32, label %33, label %47

33:                                               ; preds = %23
  %34 = fmul double %15, %28
  %35 = fmul double %18, %25
  %36 = fmul double %13, %13
  %37 = tail call double @llvm.fmuladd.f64(double %8, double %8, double %36)
  %38 = fmul double %18, %18
  %39 = tail call double @llvm.fmuladd.f64(double %15, double %15, double %38)
  %40 = fmul double %28, %28
  %41 = tail call double @llvm.fmuladd.f64(double %25, double %25, double %40)
  %42 = fsub double %34, %35
  %43 = fmul double %39, %31
  %44 = tail call double @llvm.fmuladd.f64(double %37, double %42, double %43)
  %45 = tail call double @llvm.fmuladd.f64(double %41, double %21, double %44)
  %46 = fcmp ogt double %45, 0.000000e+00
  br label %47

47:                                               ; preds = %33, %23, %5
  %.0 = phi i1 [ false, %5 ], [ %46, %33 ], [ false, %23 ]
  ret i1 %.0
}